; Function Attrs: mustprogress uwtable
define void @_ZNK8QuantLib17HestonSLVFDMModel16leverageFunctionEv(ptr dead_on_unwind noalias nocapture writable writeonly sret(%"class.boost::shared_ptr.35") align 8 %agg.result, ptr noundef nonnull align 8 dereferenceable(304) %this) local_unnamed_addr #8 align 2 personality ptr @__gxx_personality_v0 {
entry:
  %vtable = load ptr, ptr %this, align 8, !tbaa !33
  %vfn = getelementptr inbounds i8, ptr %vtable, i64 24
  %0 = load ptr, ptr %vfn, align 8
  tail call void %0(ptr noundef nonnull align 8 dereferenceable(12) %this)
  %leverageFunction_ = getelementptr inbounds nuw i8, ptr %this, i64 256
  %1 = load ptr, ptr %leverageFunction_, align 8, !tbaa !108
  store ptr %1, ptr %agg.result, align 8, !tbaa !108
  %pn.i = getelementptr inbounds nuw i8, ptr %agg.result, i64 8
  %pn3.i = getelementptr inbounds nuw i8, ptr %this, i64 264
  %2 = load ptr, ptr %pn3.i, align 8, !tbaa !42
  store ptr %2, ptr %pn.i, align 8, !tbaa !42
  %cmp.not.i.i = icmp eq ptr %2, null
  br i1 %cmp.not.i.i, label %_ZN5boost10shared_ptrIN8QuantLib21LocalVolTermStructureEEC2ERKS3_.exit, label %if.then.i.i

if.then.i.i:                                      ; preds = %entry
  %use_count_.i.i.i = getelementptr inbounds nuw i8, ptr %2, i64 8
  %3 = atomicrmw add ptr %use_count_.i.i.i, i32 1 monotonic, align 4
  br label %_ZN5boost10shared_ptrIN8QuantLib21LocalVolTermStructureEEC2ERKS3_.exit

_ZN5boost10shared_ptrIN8QuantLib21LocalVolTermStructureEEC2ERKS3_.exit: ; preds = %entry, %if.then.i.i
  ret void
}